(dp1
S'files'
p2
(dp3
S'_usr_lib_python2_7_site-packages_django_tables2_models'
p4
(dp5
S'index'
p6
(dp7
S'html_filename'
p8
S'_usr_lib_python2_7_site-packages_django_tables2_models.html'
p9
sS'name'
p10
S'/usr/lib/python2.7/site-packages/django_tables2/models'
p11
sS'nums'
p12
ccopy_reg
_reconstructor
p13
(ccoverage.results
Numbers
p14
c__builtin__
object
p15
NtRp16
(dp17
S'n_files'
p18
I1
sS'n_branches'
p19
I0
sS'n_statements'
p20
I1
sS'n_excluded'
p21
I0
sS'n_partial_branches'
p22
I0
sS'n_missing'
p23
I0
sS'n_missing_branches'
p24
I0
sbssS'hash'
p25
S'\xb5m \x02B l\x0b1O\xaf\x81\xf6\xe8\x1e\xae'
p26
ssS'_usr_lib_python2_7_site-packages_django_tables2_columns_base'
p27
(dp28
g6
(dp29
g8
S'_usr_lib_python2_7_site-packages_django_tables2_columns_base.html'
p30
sg10
S'/usr/lib/python2.7/site-packages/django_tables2/columns/base'
p31
sg12
g13
(g14
g15
NtRp32
(dp33
g18
I1
sg19
I0
sg20
I170
sg21
I0
sg22
I0
sg23
I92
sg24
I0
sbssg25
S'%\\\xf4=\xdc\xb9vX\xb4\xdftg\xef\xe7=\xf7'
p34
ssS'_usr_lib_python2_7_site-packages_pytz_tzinfo'
p35
(dp36
g6
(dp37
g8
S'_usr_lib_python2_7_site-packages_pytz_tzinfo.html'
p38
sg10
S'/usr/lib/python2.7/site-packages/pytz/tzinfo'
p39
sg12
g13
(g14
g15
NtRp40
(dp41
g18
I1
sg19
I0
sg20
I178
sg21
I0
sg22
I0
sg23
I126
sg24
I0
sbssg25
S'\x01%VyB\x18\x9dt5\ntb\x87g<\x92'
p42
ssS'_usr_lib_python2_7_site-packages_mathfilters___init__'
p43
(dp44
g6
(dp45
g8
S'_usr_lib_python2_7_site-packages_mathfilters___init__.html'
p46
sg10
S'/usr/lib/python2.7/site-packages/mathfilters/__init__'
p47
sg12
g13
(g14
g15
NtRp48
(dp49
g18
I1
sg19
I0
sg20
I0
sg21
I0
sg22
I0
sg23
I0
sg24
I0
sbssg25
S'\xb0\xc8pN\xaf>\xa0\xbaz\x144\xe0A9\xb8?'
p50
ssS'mypipeline_settings'
p51
(dp52
g6
(dp53
g8
S'mypipeline_settings.html'
p54
sg10
S'mypipeline/settings'
p55
sg12
g13
(g14
g15
NtRp56
(dp57
g18
I1
sg19
I0
sg20
I19
sg21
I0
sg22
I0
sg23
I0
sg24
I0
sbssg25
S'\xd7\xd8\x90,\xfc\xbeB\x10a\xa7\x10\x9eO\xa1V\x93'
p58
ssS'_usr_lib_python2_7_site-packages_chartit_validation'
p59
(dp60
g6
(dp61
g8
S'_usr_lib_python2_7_site-packages_chartit_validation.html'
p62
sg10
S'/usr/lib/python2.7/site-packages/chartit/validation'
p63
sg12
g13
(g14
g15
NtRp64
(dp65
g18
I1
sg19
I0
sg20
I337
sg21
I0
sg22
I0
sg23
I312
sg24
I0
sbssg25
S"\xe0\x9c\xc5\xd2\xd7\x9f\xb2\xd7']\xc1'^\xdf\x7f\x90"
p66
ssS'_usr_lib_python2_7_site-packages_django_tables2_templatetags_django_tables2'
p67
(dp68
g6
(dp69
g8
S'_usr_lib_python2_7_site-packages_django_tables2_templatetags_django_tables2.html'
p70
sg10
S'/usr/lib/python2.7/site-packages/django_tables2/templatetags/django_tables2'
p71
sg12
g13
(g14
g15
NtRp72
(dp73
g18
I1
sg19
I0
sg20
I105
sg21
I2
sg22
I0
sg23
I71
sg24
I0
sbssg25
S'|E\xe2\xc8\xed-}?\x01i\xfd\x96"\xc8\x9bs'
p74
ssS'_usr_lib_python2_7_site-packages_django_tables2_columns_filecolumn'
p75
(dp76
g6
(dp77
g8
S'_usr_lib_python2_7_site-packages_django_tables2_columns_filecolumn.html'
p78
sg10
S'/usr/lib/python2.7/site-packages/django_tables2/columns/filecolumn'
p79
sg12
g13
(g14
g15
NtRp80
(dp81
g18
I1
sg19
I0
sg20
I37
sg21
I0
sg22
I0
sg23
I25
sg24
I0
sbssg25
S',\xc79\x9d\x1by\xa12@h\xfcs\xcbd\x87\xdb'
p82
ssS'_usr_lib_python2_7_site-packages_django_tables2_tables'
p83
(dp84
g6
(dp85
g8
S'_usr_lib_python2_7_site-packages_django_tables2_tables.html'
p86
sg10
S'/usr/lib/python2.7/site-packages/django_tables2/tables'
p87
sg12
g13
(g14
g15
NtRp88
(dp89
g18
I1
sg19
I0
sg20
I248
sg21
I0
sg22
I0
sg23
I139
sg24
I0
sbssg25
S'\xa7\xbc\xff^,\xde\xc7\xe3\xeb\x92t~^neS'
p90
ssS'aml___init__'
p91
(dp92
g6
(dp93
g8
S'aml___init__.html'
p94
sg10
S'aml/__init__'
p95
sg12
g13
(g14
g15
NtRp96
(dp97
g18
I1
sg19
I0
sg20
I0
sg21
I0
sg22
I0
sg23
I0
sg24
I0
sbssg25
S'\xb0\xc8pN\xaf>\xa0\xbaz\x144\xe0A9\xb8?'
p98
ssS'aml_migrations___init__'
p99
(dp100
g6
(dp101
g8
S'aml_migrations___init__.html'
p102
sg10
S'aml/migrations/__init__'
p103
sg12
g13
(g14
g15
NtRp104
(dp105
g18
I1
sg19
I0
sg20
I0
sg21
I0
sg22
I0
sg23
I0
sg24
I0
sbssg25
S'\xb0\xc8pN\xaf>\xa0\xbaz\x144\xe0A9\xb8?'
p106
ssS'_usr_lib_python2_7_site-packages_django_tables2_columns___init__'
p107
(dp108
g6
(dp109
g8
S'_usr_lib_python2_7_site-packages_django_tables2_columns___init__.html'
p110
sg10
S'/usr/lib/python2.7/site-packages/django_tables2/columns/__init__'
p111
sg12
g13
(g14
g15
NtRp112
(dp113
g18
I1
sg19
I0
sg20
I11
sg21
I0
sg22
I0
sg23
I0
sg24
I0
sbssg25
S'z\xe7T^@\x9f\xe47@\xab;\xd1\xec\xa9k\xb9'
p114
ssS'_usr_lib_python2_7_site-packages_chartit___init__'
p115
(dp116
g6
(dp117
g8
S'_usr_lib_python2_7_site-packages_chartit___init__.html'
p118
sg10
S'/usr/lib/python2.7/site-packages/chartit/__init__'
p119
sg12
g13
(g14
g15
NtRp120
(dp121
g18
I1
sg19
I0
sg20
I3
sg21
I0
sg22
I0
sg23
I0
sg24
I0
sbssg25
S'\xf8\x04\xd3\x83\x95\x8f\xbe5\xce\xbejX\xe7M@o'
p122
ssS'_usr_lib_python2_7_site-packages_pytz___init__'
p123
(dp124
g6
(dp125
g8
S'_usr_lib_python2_7_site-packages_pytz___init__.html'
p126
sg10
S'/usr/lib/python2.7/site-packages/pytz/__init__'
p127
sg12
g13
(g14
g15
NtRp128
(dp129
g18
I1
sg19
I0
sg20
I184
sg21
I0
sg22
I0
sg23
I112
sg24
I0
sbssg25
S'LE\x15\xaaw\x89\xe4M\xa7\xf2H\xbe\xc2\xc0\xc6t'
p130
ssS'_usr_lib_python2_7_site-packages_chartit_utils'
p131
(dp132
g6
(dp133
g8
S'_usr_lib_python2_7_site-packages_chartit_utils.html'
p134
sg10
S'/usr/lib/python2.7/site-packages/chartit/utils'
p135
sg12
g13
(g14
g15
NtRp136
(dp137
g18
I1
sg19
I0
sg20
I30
sg21
I0
sg22
I0
sg23
I24
sg24
I0
sbssg25
S'D\xa7\xa0\xd5\r\x8bm\xfb\xc9\xfb\x08\x7f\x1dsH\x13'
p138
ssS'_usr_lib_python2_7_site-packages_chartit_exceptions'
p139
(dp140
g6
(dp141
g8
S'_usr_lib_python2_7_site-packages_chartit_exceptions.html'
p142
sg10
S'/usr/lib/python2.7/site-packages/chartit/exceptions'
p143
sg12
g13
(g14
g15
NtRp144
(dp145
g18
I1
sg19
I0
sg20
I2
sg21
I0
sg22
I0
sg23
I0
sg24
I0
sbssg25
S'm\x89\xc1\xfd[\xe0\xd3\xb5\xa9g\xcf\n\xf2\xb7\x01_'
p146
ssS'_usr_lib_python2_7_site-packages_django_tables2_columns_datecolumn'
p147
(dp148
g6
(dp149
g8
S'_usr_lib_python2_7_site-packages_django_tables2_columns_datecolumn.html'
p150
sg10
S'/usr/lib/python2.7/site-packages/django_tables2/columns/datecolumn'
p151
sg12
g13
(g14
g15
NtRp152
(dp153
g18
I1
sg19
I0
sg20
I14
sg21
I0
sg22
I0
sg23
I5
sg24
I0
sbssg25
S'\xa6\xf0\xff?\x91\xdf\xf0L\xd6p\x11?\xc6\xf8P\xdf'
p154
ssS'_usr_lib_python2_7_site-packages_chartit_highcharts___init__'
p155
(dp156
g6
(dp157
g8
S'_usr_lib_python2_7_site-packages_chartit_highcharts___init__.html'
p158
sg10
S'/usr/lib/python2.7/site-packages/chartit/highcharts/__init__'
p159
sg12
g13
(g14
g15
NtRp160
(dp161
g18
I1
sg19
I0
sg20
I1
sg21
I0
sg22
I0
sg23
I0
sg24
I0
sbssg25
S'JC\xc1\xf2TP\xad\xb7\x8d\x86\xb7\x0emS*\xf8'
p162
ssS'_usr_lib_python2_7_site-packages_six'
p163
(dp164
g6
(dp165
g8
S'_usr_lib_python2_7_site-packages_six.html'
p166
sg10
S'/usr/lib/python2.7/site-packages/six'
p167
sg12
g13
(g14
g15
NtRp168
(dp169
g18
I1
sg19
I0
sg20
I444
sg21
I0
sg22
I0
sg23
I213
sg24
I0
sbssg25
S'\xc6O\x91\x83\x06\xc8\x93\xdbF7XI\xfa\x1e\x96\xfa'
p170
ssS'aml_migrations_0002_auto_20160627_1509'
p171
(dp172
g6
(dp173
g8
S'aml_migrations_0002_auto_20160627_1509.html'
p174
sg10
S'aml/migrations/0002_auto_20160627_1509'
p175
sg12
g13
(g14
g15
NtRp176
(dp177
g18
I1
sg19
I0
sg20
I5
sg21
I0
sg22
I0
sg23
I0
sg24
I0
sbssg25
S'\xcd\x00\x99\x938M\x86\xd9\xf4\x9d\xc6[\xf63F\xa8'
p178
ssS'mypipeline___init__'
p179
(dp180
g6
(dp181
g8
S'mypipeline___init__.html'
p182
sg10
S'mypipeline/__init__'
p183
sg12
g13
(g14
g15
NtRp184
(dp185
g18
I1
sg19
I0
sg20
I0
sg21
I0
sg22
I0
sg23
I0
sg24
I0
sbssg25
S'\xb0\xc8pN\xaf>\xa0\xbaz\x144\xe0A9\xb8?'
p186
ssS'_usr_lib_python2_7_site-packages_pytz_exceptions'
p187
(dp188
g6
(dp189
g8
S'_usr_lib_python2_7_site-packages_pytz_exceptions.html'
p190
sg10
S'/usr/lib/python2.7/site-packages/pytz/exceptions'
p191
sg12
g13
(g14
g15
NtRp192
(dp193
g18
I1
sg19
I0
sg20
I6
sg21
I0
sg22
I0
sg23
I0
sg24
I0
sbssg25
S'\xca\xbadT#j\x8b\xb1Q\x18(s\xf5>\x99\xe1'
p194
ssS'manage'
p195
(dp196
g6
(dp197
g8
S'manage.html'
p198
sg10
g195
sg12
g13
(g14
g15
NtRp199
(dp200
g18
I1
sg19
I0
sg20
I6
sg21
I0
sg22
I0
sg23
I0
sg24
I0
sbssg25
S'\xb3|\xa7\x0bk\xa7*\\fA\x9fF\xd5\x9c\xc7\xf0'
p201
ssS'aml_migrations_0003_auto_20160628_1208'
p202
(dp203
g6
(dp204
g8
S'aml_migrations_0003_auto_20160628_1208.html'
p205
sg10
S'aml/migrations/0003_auto_20160628_1208'
p206
sg12
g13
(g14
g15
NtRp207
(dp208
g18
I1
sg19
I0
sg20
I5
sg21
I0
sg22
I0
sg23
I0
sg24
I0
sbssg25
S'\xf3\xe9\xf9\x05\xc7\xa1\xe9\xda\xc0\xf2\x8ca\xe8\xee\xe8n'
p209
ssS'_usr_lib_python2_7_site-packages_django_tables2_templatetags___init__'
p210
(dp211
g6
(dp212
g8
S'_usr_lib_python2_7_site-packages_django_tables2_templatetags___init__.html'
p213
sg10
S'/usr/lib/python2.7/site-packages/django_tables2/templatetags/__init__'
p214
sg12
g13
(g14
g15
NtRp215
(dp216
g18
I1
sg19
I0
sg20
I0
sg21
I0
sg22
I0
sg23
I0
sg24
I0
sbssg25
S'\xb0\xc8pN\xaf>\xa0\xbaz\x144\xe0A9\xb8?'
p217
ssS'_usr_lib_python2_7_site-packages_django_tables2_columns_datetimecolumn'
p218
(dp219
g6
(dp220
g8
S'_usr_lib_python2_7_site-packages_django_tables2_columns_datetimecolumn.html'
p221
sg10
S'/usr/lib/python2.7/site-packages/django_tables2/columns/datetimecolumn'
p222
sg12
g13
(g14
g15
NtRp223
(dp224
g18
I1
sg19
I0
sg20
I14
sg21
I0
sg22
I0
sg23
I5
sg24
I0
sbssg25
S'\xdfw\xfa\xd9rr\t.\x95\x8fIj\\\xc6\xaa\xae'
p225
ssS'_usr_lib_python2_7_site-packages_pytz_tzfile'
p226
(dp227
g6
(dp228
g8
S'_usr_lib_python2_7_site-packages_pytz_tzfile.html'
p229
sg10
S'/usr/lib/python2.7/site-packages/pytz/tzfile'
p230
sg12
g13
(g14
g15
NtRp231
(dp232
g18
I1
sg19
I0
sg20
I81
sg21
I0
sg22
I0
sg23
I68
sg24
I0
sbssg25
S'IT\x9dA\xf7&3\x83\xa7H\xf4\xe2\xbc\n\xd5\xce'
p233
ssS'_usr_lib_python2_7_site-packages_chartit_charts'
p234
(dp235
g6
(dp236
g8
S'_usr_lib_python2_7_site-packages_chartit_charts.html'
p237
sg10
S'/usr/lib/python2.7/site-packages/chartit/charts'
p238
sg12
g13
(g14
g15
NtRp239
(dp240
g18
I1
sg19
I0
sg20
I244
sg21
I0
sg22
I0
sg23
I223
sg24
I0
sbssg25
S'Q\x01\x02G:\xdc\xff\x90_zp\xcdM\xe2\xe2\x9e'
p241
ssS'_usr_lib_python2_7_site-packages_django_tables2_columns_checkboxcolumn'
p242
(dp243
g6
(dp244
g8
S'_usr_lib_python2_7_site-packages_django_tables2_columns_checkboxcolumn.html'
p245
sg10
S'/usr/lib/python2.7/site-packages/django_tables2/columns/checkboxcolumn'
p246
sg12
g13
(g14
g15
NtRp247
(dp248
g18
I1
sg19
I0
sg20
I22
sg21
I0
sg22
I0
sg23
I13
sg24
I0
sbssg25
S'\x1dJ\xdc\xa4\x95!\x94\xd8|\xed5waH\xa2\xf1'
p249
ssS'aml_migrations_0001_initial'
p250
(dp251
g6
(dp252
g8
S'aml_migrations_0001_initial.html'
p253
sg10
S'aml/migrations/0001_initial'
p254
sg12
g13
(g14
g15
NtRp255
(dp256
g18
I1
sg19
I0
sg20
I6
sg21
I0
sg22
I0
sg23
I0
sg24
I0
sbssg25
S'\x938\x15T\x8cb\xfa\xff4\xff\xf9\xa3\xd4K}7'
p257
ssS'_usr_lib_python2_7_site-packages_django_tables2___init__'
p258
(dp259
g6
(dp260
g8
S'_usr_lib_python2_7_site-packages_django_tables2___init__.html'
p261
sg10
S'/usr/lib/python2.7/site-packages/django_tables2/__init__'
p262
sg12
g13
(g14
g15
NtRp263
(dp264
g18
I1
sg19
I0
sg20
I6
sg21
I0
sg22
I0
sg23
I0
sg24
I0
sbssg25
S'\x18Jv\x9e4\x95\xce\x9399\xe2\x00\x10\xc83\xc6'
p265
ssS'_usr_lib_python2_7_site-packages_pyinotify'
p266
(dp267
g6
(dp268
g8
S'_usr_lib_python2_7_site-packages_pyinotify.html'
p269
sg10
S'/usr/lib/python2.7/site-packages/pyinotify'
p270
sg12
g13
(g14
g15
NtRp271
(dp272
g18
I1
sg19
I0
sg20
I898
sg21
I0
sg22
I0
sg23
I657
sg24
I0
sbssg25
S'\x9c\x12J\xe4\x8e\xc5\xa8\xe4\xab#\xb2A\xe5\x9bu\x87'
p273
ssS'_usr_lib_python2_7_site-packages_pytz_lazy'
p274
(dp275
g6
(dp276
g8
S'_usr_lib_python2_7_site-packages_pytz_lazy.html'
p277
sg10
S'/usr/lib/python2.7/site-packages/pytz/lazy'
p278
sg12
g13
(g14
g15
NtRp279
(dp280
g18
I1
sg19
I0
sg20
I97
sg21
I0
sg22
I0
sg23
I56
sg24
I0
sbssg25
S'\x17;\xff\x132w\x14a\xcd\x85RM&\xee\x0c\xfd'
p281
ssS'_usr_lib_python2_7_site-packages_django_tables2_views'
p282
(dp283
g6
(dp284
g8
S'_usr_lib_python2_7_site-packages_django_tables2_views.html'
p285
sg10
S'/usr/lib/python2.7/site-packages/django_tables2/views'
p286
sg12
g13
(g14
g15
NtRp287
(dp288
g18
I1
sg19
I0
sg20
I37
sg21
I3
sg22
I0
sg23
I21
sg24
I0
sbssg25
S'\xb0R\xc4Y-{i\xb4\x0ck\x8d wk]\x92'
p289
ssS'_usr_lib_python2_7_site-packages_django_tables2_columns_timecolumn'
p290
(dp291
g6
(dp292
g8
S'_usr_lib_python2_7_site-packages_django_tables2_columns_timecolumn.html'
p293
sg10
S'/usr/lib/python2.7/site-packages/django_tables2/columns/timecolumn'
p294
sg12
g13
(g14
g15
NtRp295
(dp296
g18
I1
sg19
I0
sg20
I15
sg21
I0
sg22
I0
sg23
I5
sg24
I0
sbssg25
S'\x9f\xedVl\xde\x87C}\x85\xcc5W\x16\xe7\x88\xae'
p297
ssS'_usr_lib_python2_7_site-packages_django_tables2_columns_linkcolumn'
p298
(dp299
g6
(dp300
g8
S'_usr_lib_python2_7_site-packages_django_tables2_columns_linkcolumn.html'
p301
sg10
S'/usr/lib/python2.7/site-packages/django_tables2/columns/linkcolumn'
p302
sg12
g13
(g14
g15
NtRp303
(dp304
g18
I1
sg19
I0
sg20
I54
sg21
I0
sg22
I0
sg23
I37
sg24
I0
sbssg25
S'\xe3\x95\x0f.\xd6\x9e\xad\xafT\xb0*/\xa8\xc2\xf2\xb2'
p305
ssS'_usr_lib_python2_7_site-packages_django_tables2_columns_emailcolumn'
p306
(dp307
g6
(dp308
g8
S'_usr_lib_python2_7_site-packages_django_tables2_columns_emailcolumn.html'
p309
sg10
S'/usr/lib/python2.7/site-packages/django_tables2/columns/emailcolumn'
p310
sg12
g13
(g14
g15
NtRp311
(dp312
g18
I1
sg19
I0
sg20
I11
sg21
I0
sg22
I0
sg23
I2
sg24
I0
sbssg25
S'\xa2T\xa5^\x1c\rx\xed\xc6\x91\xd0}\x8clRQ'
p313
ssS'_usr_lib_python2_7_site-packages_django_tables2_config'
p314
(dp315
g6
(dp316
g8
S'_usr_lib_python2_7_site-packages_django_tables2_config.html'
p317
sg10
S'/usr/lib/python2.7/site-packages/django_tables2/config'
p318
sg12
g13
(g14
g15
NtRp319
(dp320
g18
I1
sg19
I0
sg20
I29
sg21
I0
sg22
I0
sg23
I24
sg24
I0
sbssg25
S'\xc0\xc7"U\xd3\x02\x03\xdb\xb9#\xb90\xaf\xfap\xb0'
p321
ssS'_usr_lib_python2_7_site-packages_django_tables2_rows'
p322
(dp323
g6
(dp324
g8
S'_usr_lib_python2_7_site-packages_django_tables2_rows.html'
p325
sg10
S'/usr/lib/python2.7/site-packages/django_tables2/rows'
p326
sg12
g13
(g14
g15
NtRp327
(dp328
g18
I1
sg19
I0
sg20
I62
sg21
I0
sg22
I0
sg23
I45
sg24
I0
sbssg25
S'<{\xb3\xc0 \x01\xa8W\xf7tY\x9b\xb4FU\xc6'
p329
ssS'_usr_lib_python2_7_site-packages_django_tables2_columns_booleancolumn'
p330
(dp331
g6
(dp332
g8
S'_usr_lib_python2_7_site-packages_django_tables2_columns_booleancolumn.html'
p333
sg10
S'/usr/lib/python2.7/site-packages/django_tables2/columns/booleancolumn'
p334
sg12
g13
(g14
g15
NtRp335
(dp336
g18
I1
sg19
I0
sg20
I31
sg21
I0
sg22
I0
sg23
I18
sg24
I0
sbssg25
S'%\x07\xcc7\xe8\xa9b\xb9\x16\xed\xb6<\x9b\x9b\x0b\xf9'
p337
ssS'_usr_lib_python2_7_site-packages_django_tables2_utils'
p338
(dp339
g6
(dp340
g8
S'_usr_lib_python2_7_site-packages_django_tables2_utils.html'
p341
sg10
S'/usr/lib/python2.7/site-packages/django_tables2/utils'
p342
sg12
g13
(g14
g15
NtRp343
(dp344
g18
I1
sg19
I0
sg20
I180
sg21
I0
sg22
I0
sg23
I142
sg24
I0
sbssg25
S'\xef\x91\x1c\xe1\xe3cp\xde\xffJ)j\xc1l8\xd4'
p345
ssS'_usr_lib_python2_7_site-packages_django_tables2_columns_urlcolumn'
p346
(dp347
g6
(dp348
g8
S'_usr_lib_python2_7_site-packages_django_tables2_columns_urlcolumn.html'
p349
sg10
S'/usr/lib/python2.7/site-packages/django_tables2/columns/urlcolumn'
p350
sg12
g13
(g14
g15
NtRp351
(dp352
g18
I1
sg19
I0
sg20
I11
sg21
I0
sg22
I0
sg23
I2
sg24
I0
sbssg25
S'\x92\x1d9\xa0]\xcd\x87\xe6\xa4\xb6\x9a,\xaa\xf2w9'
p353
ssS'aml_models'
p354
(dp355
g6
(dp356
g8
S'aml_models.html'
p357
sg10
S'aml/models'
p358
sg12
g13
(g14
g15
NtRp359
(dp360
g18
I1
sg19
I0
sg20
I121
sg21
I0
sg22
I0
sg23
I0
sg24
I0
sbssg25
S'\x80\x15\xf1\x120K\x03\xa7L\x8a\x15[\xf3X@\xa4'
p361
ssS'_usr_lib_python2_7_site-packages_chartit_highcharts_hcoptions'
p362
(dp363
g6
(dp364
g8
S'_usr_lib_python2_7_site-packages_chartit_highcharts_hcoptions.html'
p365
sg10
S'/usr/lib/python2.7/site-packages/chartit/highcharts/hcoptions'
p366
sg12
g13
(g14
g15
NtRp367
(dp368
g18
I1
sg19
I0
sg20
I4
sg21
I0
sg22
I0
sg23
I0
sg24
I0
sbssg25
S'%U\xd6\xa8(\x84\xb6\xb0\x11\x86`ii\xfc\x19x'
p369
ssS'_usr_lib_python2_7_site-packages_chartit_chartdata'
p370
(dp371
g6
(dp372
g8
S'_usr_lib_python2_7_site-packages_chartit_chartdata.html'
p373
sg10
S'/usr/lib/python2.7/site-packages/chartit/chartdata'
p374
sg12
g13
(g14
g15
NtRp375
(dp376
g18
I1
sg19
I0
sg20
I137
sg21
I0
sg22
I0
sg23
I121
sg24
I0
sbssg25
S'\xe1\xe5\x04\xc2*\x0b\x8aK\\\xc0wiE\xbdLT'
p377
ssS'_usr_lib_python2_7_site-packages_django_tables2_columns_templatecolumn'
p378
(dp379
g6
(dp380
g8
S'_usr_lib_python2_7_site-packages_django_tables2_columns_templatecolumn.html'
p381
sg10
S'/usr/lib/python2.7/site-packages/django_tables2/columns/templatecolumn'
p382
sg12
g13
(g14
g15
NtRp383
(dp384
g18
I1
sg19
I0
sg20
I22
sg21
I0
sg22
I0
sg23
I13
sg24
I0
sbssg25
S'\xd5\x9e\xd7n\xf1\xcf#\x82Q\x8b\xd3\xcfB\x9f\x1b\xaf'
p385
ssS'aml_admin'
p386
(dp387
g6
(dp388
g8
S'aml_admin.html'
p389
sg10
S'aml/admin'
p390
sg12
g13
(g14
g15
NtRp391
(dp392
g18
I1
sg19
I0
sg20
I1
sg21
I0
sg22
I0
sg23
I0
sg24
I0
sbssg25
S'n\x07LE88\xf3&\x91\x1d\xfb3\xba)Ar'
p393
sssS'version'
p394
S'3.6'
p395
sS'settings'
p396
S'3\xcf\xa1\x19.\x88o$\x8cA\xde\xbd\xcd\x06\xa1\x0f'
p397
sS'format'
p398
I1
s.